target datalayout = "e-m:e-p270:32:32-p271:32:32-p272:64:64-i64:64-i128:128-f80:128-n8:16:32:64-S128"
target triple = "x86_64-pc-linux-gnu"

%struct.RangeBound = type { i64, i8, i8, i8 }
%struct.FmgrInfo = type { ptr, i32, i16, i8, i8, i8, ptr, ptr, ptr }
%struct.TypeCacheEntry = type { i32, i32, i16, i8, i8, i8, i8, i32, i32, i32, i32, i32, i32, i32, i32, i32, i32, i32, i32, i32, i32, %struct.FmgrInfo, %struct.FmgrInfo, %struct.FmgrInfo, %struct.FmgrInfo, ptr, i64, ptr, i32, i32, %struct.FmgrInfo, %struct.FmgrInfo, %struct.FmgrInfo, ptr, i32, i32, ptr, i32, ptr, ptr }
%struct.RangeType = type { i32, i32 }

@.str.1 = private unnamed_addr constant [13 x i8] c"rangetypes.c\00", align 1
@.str.2 = private unnamed_addr constant [25 x i8] c"range types do not match\00", align 1
@__func__.range_overleft_internal = private unnamed_addr constant [24 x i8] c"range_overleft_internal\00", align 1

; Function Attrs: inlinehint nounwind uwtable
define internal i32 @DatumGetInt32(i64 noundef %0) #2 {
  %2 = alloca i64, align 8
  store i64 %0, ptr %2, align 8
  %3 = load i64, ptr %2, align 8
  %4 = trunc i64 %3 to i32
  ret i32 %4
}

; Function Attrs: nounwind uwtable
define dso_local i32 @range_cmp_bounds(ptr noundef %0, ptr noundef %1, ptr noundef %2) #0 {
  %4 = alloca i32, align 4
  %5 = alloca ptr, align 8
  %6 = alloca ptr, align 8
  %7 = alloca ptr, align 8
  %8 = alloca i32, align 4
  %9 = alloca i32, align 4
  store ptr %0, ptr %5, align 8
  store ptr %1, ptr %6, align 8
  store ptr %2, ptr %7, align 8
  call void @llvm.lifetime.start.p0(i64 4, ptr %8) #10
  %10 = load ptr, ptr %6, align 8
  %11 = getelementptr inbounds nuw %struct.RangeBound, ptr %10, i32 0, i32 1
  %12 = load i8, ptr %11, align 8, !range !7, !noundef !8
  %13 = trunc i8 %12 to i1
  br i1 %13, label %14, label %38

14:                                               ; preds = %3
  %15 = load ptr, ptr %7, align 8
  %16 = getelementptr inbounds nuw %struct.RangeBound, ptr %15, i32 0, i32 1
  %17 = load i8, ptr %16, align 8, !range !7, !noundef !8
  %18 = trunc i8 %17 to i1
  br i1 %18, label %19, label %38

19:                                               ; preds = %14
  %20 = load ptr, ptr %6, align 8
  %21 = getelementptr inbounds nuw %struct.RangeBound, ptr %20, i32 0, i32 3
  %22 = load i8, ptr %21, align 2, !range !7, !noundef !8
  %23 = trunc i8 %22 to i1
  %24 = zext i1 %23 to i32
  %25 = load ptr, ptr %7, align 8
  %26 = getelementptr inbounds nuw %struct.RangeBound, ptr %25, i32 0, i32 3
  %27 = load i8, ptr %26, align 2, !range !7, !noundef !8
  %28 = trunc i8 %27 to i1
  %29 = zext i1 %28 to i32
  %30 = icmp eq i32 %24, %29
  br i1 %30, label %31, label %32

31:                                               ; preds = %19
  store i32 0, ptr %4, align 4
  store i32 1, ptr %9, align 4
  br label %132

32:                                               ; preds = %19
  %33 = load ptr, ptr %6, align 8
  %34 = getelementptr inbounds nuw %struct.RangeBound, ptr %33, i32 0, i32 3
  %35 = load i8, ptr %34, align 2, !range !7, !noundef !8
  %36 = trunc i8 %35 to i1
  %37 = select i1 %36, i32 -1, i32 1
  store i32 %37, ptr %4, align 4
  store i32 1, ptr %9, align 4
  br label %132

38:                                               ; preds = %14, %3
  %39 = load ptr, ptr %6, align 8
  %40 = getelementptr inbounds nuw %struct.RangeBound, ptr %39, i32 0, i32 1
  %41 = load i8, ptr %40, align 8, !range !7, !noundef !8
  %42 = trunc i8 %41 to i1
  br i1 %42, label %43, label %49

43:                                               ; preds = %38
  %44 = load ptr, ptr %6, align 8
  %45 = getelementptr inbounds nuw %struct.RangeBound, ptr %44, i32 0, i32 3
  %46 = load i8, ptr %45, align 2, !range !7, !noundef !8
  %47 = trunc i8 %46 to i1
  %48 = select i1 %47, i32 -1, i32 1
  store i32 %48, ptr %4, align 4
  store i32 1, ptr %9, align 4
  br label %132

49:                                               ; preds = %38
  %50 = load ptr, ptr %7, align 8
  %51 = getelementptr inbounds nuw %struct.RangeBound, ptr %50, i32 0, i32 1
  %52 = load i8, ptr %51, align 8, !range !7, !noundef !8
  %53 = trunc i8 %52 to i1
  br i1 %53, label %54, label %60

54:                                               ; preds = %49
  %55 = load ptr, ptr %7, align 8
  %56 = getelementptr inbounds nuw %struct.RangeBound, ptr %55, i32 0, i32 3
  %57 = load i8, ptr %56, align 2, !range !7, !noundef !8
  %58 = trunc i8 %57 to i1
  %59 = select i1 %58, i32 1, i32 -1
  store i32 %59, ptr %4, align 4
  store i32 1, ptr %9, align 4
  br label %132

60:                                               ; preds = %49
  br label %61

61:                                               ; preds = %60
  br label %62

62:                                               ; preds = %61
  %63 = load ptr, ptr %5, align 8
  %64 = getelementptr inbounds nuw %struct.TypeCacheEntry, ptr %63, i32 0, i32 30
  %65 = load ptr, ptr %5, align 8
  %66 = getelementptr inbounds nuw %struct.TypeCacheEntry, ptr %65, i32 0, i32 29
  %67 = load i32, ptr %66, align 4
  %68 = load ptr, ptr %6, align 8
  %69 = getelementptr inbounds nuw %struct.RangeBound, ptr %68, i32 0, i32 0
  %70 = load i64, ptr %69, align 8
  %71 = load ptr, ptr %7, align 8
  %72 = getelementptr inbounds nuw %struct.RangeBound, ptr %71, i32 0, i32 0
  %73 = load i64, ptr %72, align 8
  %74 = call i64 @FunctionCall2Coll(ptr noundef %64, i32 noundef %67, i64 noundef %70, i64 noundef %73)
  %75 = call i32 @DatumGetInt32(i64 noundef %74)
  store i32 %75, ptr %8, align 4
  %76 = load i32, ptr %8, align 4
  %77 = icmp eq i32 %76, 0
  br i1 %77, label %78, label %130

78:                                               ; preds = %62
  %79 = load ptr, ptr %6, align 8
  %80 = getelementptr inbounds nuw %struct.RangeBound, ptr %79, i32 0, i32 2
  %81 = load i8, ptr %80, align 1, !range !7, !noundef !8
  %82 = trunc i8 %81 to i1
  br i1 %82, label %107, label %83

83:                                               ; preds = %78
  %84 = load ptr, ptr %7, align 8
  %85 = getelementptr inbounds nuw %struct.RangeBound, ptr %84, i32 0, i32 2
  %86 = load i8, ptr %85, align 1, !range !7, !noundef !8
  %87 = trunc i8 %86 to i1
  br i1 %87, label %107, label %88

88:                                               ; preds = %83
  %89 = load ptr, ptr %6, align 8
  %90 = getelementptr inbounds nuw %struct.RangeBound, ptr %89, i32 0, i32 3
  %91 = load i8, ptr %90, align 2, !range !7, !noundef !8
  %92 = trunc i8 %91 to i1
  %93 = zext i1 %92 to i32
  %94 = load ptr, ptr %7, align 8
  %95 = getelementptr inbounds nuw %struct.RangeBound, ptr %94, i32 0, i32 3
  %96 = load i8, ptr %95, align 2, !range !7, !noundef !8
  %97 = trunc i8 %96 to i1
  %98 = zext i1 %97 to i32
  %99 = icmp eq i32 %93, %98
  br i1 %99, label %100, label %101

100:                                              ; preds = %88
  store i32 0, ptr %4, align 4
  store i32 1, ptr %9, align 4
  br label %132

101:                                              ; preds = %88
  %102 = load ptr, ptr %6, align 8
  %103 = getelementptr inbounds nuw %struct.RangeBound, ptr %102, i32 0, i32 3
  %104 = load i8, ptr %103, align 2, !range !7, !noundef !8
  %105 = trunc i8 %104 to i1
  %106 = select i1 %105, i32 1, i32 -1
  store i32 %106, ptr %4, align 4
  store i32 1, ptr %9, align 4
  br label %132

107:                                              ; preds = %83, %78
  %108 = load ptr, ptr %6, align 8
  %109 = getelementptr inbounds nuw %struct.RangeBound, ptr %108, i32 0, i32 2
  %110 = load i8, ptr %109, align 1, !range !7, !noundef !8
  %111 = trunc i8 %110 to i1
  br i1 %111, label %118, label %112

112:                                              ; preds = %107
  %113 = load ptr, ptr %6, align 8
  %114 = getelementptr inbounds nuw %struct.RangeBound, ptr %113, i32 0, i32 3
  %115 = load i8, ptr %114, align 2, !range !7, !noundef !8
  %116 = trunc i8 %115 to i1
  %117 = select i1 %116, i32 1, i32 -1
  store i32 %117, ptr %4, align 4
  store i32 1, ptr %9, align 4
  br label %132

118:                                              ; preds = %107
  %119 = load ptr, ptr %7, align 8
  %120 = getelementptr inbounds nuw %struct.RangeBound, ptr %119, i32 0, i32 2
  %121 = load i8, ptr %120, align 1, !range !7, !noundef !8
  %122 = trunc i8 %121 to i1
  br i1 %122, label %129, label %123

123:                                              ; preds = %118
  %124 = load ptr, ptr %7, align 8
  %125 = getelementptr inbounds nuw %struct.RangeBound, ptr %124, i32 0, i32 3
  %126 = load i8, ptr %125, align 2, !range !7, !noundef !8
  %127 = trunc i8 %126 to i1
  %128 = select i1 %127, i32 -1, i32 1
  store i32 %128, ptr %4, align 4
  store i32 1, ptr %9, align 4
  br label %132

129:                                              ; preds = %118
  store i32 0, ptr %4, align 4
  store i32 1, ptr %9, align 4
  br label %132

130:                                              ; preds = %62
  %131 = load i32, ptr %8, align 4
  store i32 %131, ptr %4, align 4
  store i32 1, ptr %9, align 4
  br label %132

132:                                              ; preds = %130, %129, %123, %112, %101, %100, %54, %43, %32, %31
  call void @llvm.lifetime.end.p0(i64 4, ptr %8) #10
  %133 = load i32, ptr %4, align 4
  ret i32 %133
}

; Function Attrs: nounwind uwtable
define dso_local zeroext i1 @range_overleft_internal(ptr noundef %0, ptr noundef %1, ptr noundef %2) #0 {
  %4 = alloca i1, align 1
  %5 = alloca ptr, align 8
  %6 = alloca ptr, align 8
  %7 = alloca ptr, align 8
  %8 = alloca %struct.RangeBound, align 8
  %9 = alloca %struct.RangeBound, align 8
  %10 = alloca %struct.RangeBound, align 8
  %11 = alloca %struct.RangeBound, align 8
  %12 = alloca i8, align 1
  %13 = alloca i8, align 1
  %14 = alloca i32, align 4
  store ptr %0, ptr %5, align 8
  store ptr %1, ptr %6, align 8
  store ptr %2, ptr %7, align 8
  call void @llvm.lifetime.start.p0(i64 16, ptr %8) #10
  call void @llvm.lifetime.start.p0(i64 16, ptr %9) #10
  call void @llvm.lifetime.start.p0(i64 16, ptr %10) #10
  call void @llvm.lifetime.start.p0(i64 16, ptr %11) #10
  call void @llvm.lifetime.start.p0(i64 1, ptr %12) #10
  call void @llvm.lifetime.start.p0(i64 1, ptr %13) #10
  %15 = load ptr, ptr %6, align 8
  %16 = getelementptr inbounds nuw %struct.RangeType, ptr %15, i32 0, i32 1
  %17 = load i32, ptr %16, align 4
  %18 = load ptr, ptr %7, align 8
  %19 = getelementptr inbounds nuw %struct.RangeType, ptr %18, i32 0, i32 1
  %20 = load i32, ptr %19, align 4
  %21 = icmp ne i32 %17, %20
  br i1 %21, label %22, label %33

22:                                               ; preds = %3
  br label %23

23:                                               ; preds = %22
  br i1 true, label %24, label %26

24:                                               ; preds = %23
  %25 = call zeroext i1 @errstart_cold(i32 noundef 21, ptr noundef null) #11
  br i1 %25, label %28, label %30

26:                                               ; preds = %23
  %27 = call zeroext i1 @errstart(i32 noundef 21, ptr noundef null)
  br i1 %27, label %28, label %30

28:                                               ; preds = %26, %24
  %29 = call i32 (ptr, ...) @errmsg_internal(ptr noundef @.str.2)
  call void @errfinish(ptr noundef @.str.1, i32 noundef 898, ptr noundef @__func__.range_overleft_internal)
  br label %30

30:                                               ; preds = %28, %26, %24
  unreachable

31:                                               ; No predecessors!
  br label %32

32:                                               ; preds = %31
  br label %33

33:                                               ; preds = %32, %3
  %34 = load ptr, ptr %5, align 8
  %35 = load ptr, ptr %6, align 8
  call void @range_deserialize(ptr noundef %34, ptr noundef %35, ptr noundef %8, ptr noundef %10, ptr noundef %12)
  %36 = load ptr, ptr %5, align 8
  %37 = load ptr, ptr %7, align 8
  call void @range_deserialize(ptr noundef %36, ptr noundef %37, ptr noundef %9, ptr noundef %11, ptr noundef %13)
  %38 = load i8, ptr %12, align 1, !range !7, !noundef !8
  %39 = trunc i8 %38 to i1
  br i1 %39, label %43, label %40

40:                                               ; preds = %33
  %41 = load i8, ptr %13, align 1, !range !7, !noundef !8
  %42 = trunc i8 %41 to i1
  br i1 %42, label %43, label %44

43:                                               ; preds = %40, %33
  store i1 false, ptr %4, align 1
  store i32 1, ptr %14, align 4
  br label %50

44:                                               ; preds = %40
  %45 = load ptr, ptr %5, align 8
  %46 = call i32 @range_cmp_bounds(ptr noundef %45, ptr noundef %10, ptr noundef %11)
  %47 = icmp sle i32 %46, 0
  br i1 %47, label %48, label %49

48:                                               ; preds = %44
  store i1 true, ptr %4, align 1
  store i32 1, ptr %14, align 4
  br label %50

49:                                               ; preds = %44
  store i1 false, ptr %4, align 1
  store i32 1, ptr %14, align 4
  br label %50

50:                                               ; preds = %49, %48, %43
  call void @llvm.lifetime.end.p0(i64 1, ptr %13) #10
  call void @llvm.lifetime.end.p0(i64 1, ptr %12) #10
  call void @llvm.lifetime.end.p0(i64 16, ptr %11) #10
  call void @llvm.lifetime.end.p0(i64 16, ptr %10) #10
  call void @llvm.lifetime.end.p0(i64 16, ptr %9) #10
  call void @llvm.lifetime.end.p0(i64 16, ptr %8) #10
  %51 = load i1, ptr %4, align 1
  ret i1 %51
}